; Function Attrs: nounwind uwtable
define nonnull ptr @l___private_Lean_Compiler_LCNF_PhaseExt_0__Lean_Compiler_LCNF_declLt___boxed(ptr noundef %0, ptr noundef %1) #1 {
  %3 = getelementptr inbounds nuw i8, ptr %0, i64 8
  %4 = load ptr, ptr %3, align 8, !tbaa !9
  %5 = getelementptr inbounds nuw i8, ptr %1, i64 8
  %6 = load ptr, ptr %5, align 8, !tbaa !9
  %7 = tail call zeroext i8 @l_Lean_Name_quickLt(ptr noundef %4, ptr noundef %6) #6
  %8 = ptrtoint ptr %1 to i64
  %9 = and i64 %8, 1
  %.not = icmp eq i64 %9, 0
  br i1 %.not, label %10, label %lean_dec.exit

10:                                               ; preds = %2
  %11 = load i32, ptr %1, align 4, !tbaa !4
  %12 = icmp sgt i32 %11, 1
  br i1 %12, label %13, label %15, !prof !11

13:                                               ; preds = %10
  %14 = add nsw i32 %11, -1
  store i32 %14, ptr %1, align 4, !tbaa !4
  br label %lean_dec.exit

15:                                               ; preds = %10
  %.not.i6 = icmp eq i32 %11, 0
  br i1 %.not.i6, label %lean_dec.exit, label %16

16:                                               ; preds = %15
  tail call void @lean_dec_ref_cold(ptr noundef nonnull %1) #6
  br label %lean_dec.exit

lean_dec.exit:                                    ; preds = %16, %15, %13, %2
  %17 = ptrtoint ptr %0 to i64
  %18 = and i64 %17, 1
  %.not8 = icmp eq i64 %18, 0
  br i1 %.not8, label %19, label %lean_dec.exit5

19:                                               ; preds = %lean_dec.exit
  %20 = load i32, ptr %0, align 4, !tbaa !4
  %21 = icmp sgt i32 %20, 1
  br i1 %21, label %22, label %24, !prof !11

22:                                               ; preds = %19
  %23 = add nsw i32 %20, -1
  store i32 %23, ptr %0, align 4, !tbaa !4
  br label %lean_dec.exit5

24:                                               ; preds = %19
  %.not.i = icmp eq i32 %20, 0
  br i1 %.not.i, label %lean_dec.exit5, label %25

25:                                               ; preds = %24
  tail call void @lean_dec_ref_cold(ptr noundef nonnull %0) #6
  br label %lean_dec.exit5

lean_dec.exit5:                                   ; preds = %25, %24, %22, %lean_dec.exit
  %26 = zext i8 %7 to i64
  %27 = shl nuw nsw i64 %26, 1
  %28 = or disjoint i64 %27, 1
  %29 = inttoptr i64 %28 to ptr
  ret ptr %29
}